target datalayout = "e-m:e-p270:32:32-p271:32:32-p272:64:64-i64:64-i128:128-f80:128-n8:16:32:64-S128"
target triple = "x86_64-pc-linux-gnu"

%"class.std::__1::locale::facet" = type { %"class.std::__1::__shared_count" }
%"class.std::__1::__shared_count" = type { ptr, i64 }
%"class.std::__1::ctype_byname.53" = type { %"class.std::__1::ctype.9", ptr }
%"class.std::__1::ctype.9" = type { %"class.std::__1::locale::facet" }

; Function Attrs: inlinehint mustprogress nounwind uwtable
define linkonce_odr hidden noundef i32 @_ZNSt3__18__locale10__iswblankB8ne210000EjP15__locale_struct(i32 noundef %0, ptr noundef %1) #4 comdat {
  %3 = alloca i32, align 4
  %4 = alloca ptr, align 8
  store i32 %0, ptr %3, align 4, !tbaa !41
  store ptr %1, ptr %4, align 8, !tbaa !102
  %5 = load i32, ptr %3, align 4, !tbaa !41
  %6 = load ptr, ptr %4, align 8, !tbaa !102
  %7 = call i32 @iswblank_l(i32 noundef %5, ptr noundef %6) #13
  ret i32 %7
}

; Function Attrs: inlinehint mustprogress nounwind uwtable
define linkonce_odr hidden noundef i32 @_ZNSt3__18__locale11__iswxdigitB8ne210000EjP15__locale_struct(i32 noundef %0, ptr noundef %1) #4 comdat {
  %3 = alloca i32, align 4
  %4 = alloca ptr, align 8
  store i32 %0, ptr %3, align 4, !tbaa !41
  store ptr %1, ptr %4, align 8, !tbaa !102
  %5 = load i32, ptr %3, align 4, !tbaa !41
  %6 = load ptr, ptr %4, align 8, !tbaa !102
  %7 = call i32 @iswxdigit_l(i32 noundef %5, ptr noundef %6) #13
  ret i32 %7
}

; Function Attrs: inlinehint mustprogress nounwind uwtable
define linkonce_odr hidden noundef i32 @_ZNSt3__18__locale10__iswpunctB8ne210000EjP15__locale_struct(i32 noundef %0, ptr noundef %1) #4 comdat {
  %3 = alloca i32, align 4
  %4 = alloca ptr, align 8
  store i32 %0, ptr %3, align 4, !tbaa !41
  store ptr %1, ptr %4, align 8, !tbaa !102
  %5 = load i32, ptr %3, align 4, !tbaa !41
  %6 = load ptr, ptr %4, align 8, !tbaa !102
  %7 = call i32 @iswpunct_l(i32 noundef %5, ptr noundef %6) #13
  ret i32 %7
}

; Function Attrs: inlinehint mustprogress nounwind uwtable
define linkonce_odr hidden noundef i32 @_ZNSt3__18__locale10__iswdigitB8ne210000EjP15__locale_struct(i32 noundef %0, ptr noundef %1) #4 comdat {
  %3 = alloca i32, align 4
  %4 = alloca ptr, align 8
  store i32 %0, ptr %3, align 4, !tbaa !41
  store ptr %1, ptr %4, align 8, !tbaa !102
  %5 = load i32, ptr %3, align 4, !tbaa !41
  %6 = load ptr, ptr %4, align 8, !tbaa !102
  %7 = call i32 @iswdigit_l(i32 noundef %5, ptr noundef %6) #13
  ret i32 %7
}

; Function Attrs: inlinehint mustprogress nounwind uwtable
define linkonce_odr hidden noundef i32 @_ZNSt3__18__locale10__iswalphaB8ne210000EjP15__locale_struct(i32 noundef %0, ptr noundef %1) #4 comdat {
  %3 = alloca i32, align 4
  %4 = alloca ptr, align 8
  store i32 %0, ptr %3, align 4, !tbaa !41
  store ptr %1, ptr %4, align 8, !tbaa !102
  %5 = load i32, ptr %3, align 4, !tbaa !41
  %6 = load ptr, ptr %4, align 8, !tbaa !102
  %7 = call i32 @iswalpha_l(i32 noundef %5, ptr noundef %6) #13
  ret i32 %7
}

; Function Attrs: inlinehint mustprogress nounwind uwtable
define linkonce_odr hidden noundef i32 @_ZNSt3__18__locale10__iswlowerB8ne210000EjP15__locale_struct(i32 noundef %0, ptr noundef %1) #4 comdat {
  %3 = alloca i32, align 4
  %4 = alloca ptr, align 8
  store i32 %0, ptr %3, align 4, !tbaa !41
  store ptr %1, ptr %4, align 8, !tbaa !102
  %5 = load i32, ptr %3, align 4, !tbaa !41
  %6 = load ptr, ptr %4, align 8, !tbaa !102
  %7 = call i32 @iswlower_l(i32 noundef %5, ptr noundef %6) #13
  ret i32 %7
}

; Function Attrs: inlinehint mustprogress nounwind uwtable
define linkonce_odr hidden noundef i32 @_ZNSt3__18__locale10__iswupperB8ne210000EjP15__locale_struct(i32 noundef %0, ptr noundef %1) #4 comdat {
  %3 = alloca i32, align 4
  %4 = alloca ptr, align 8
  store i32 %0, ptr %3, align 4, !tbaa !41
  store ptr %1, ptr %4, align 8, !tbaa !102
  %5 = load i32, ptr %3, align 4, !tbaa !41
  %6 = load ptr, ptr %4, align 8, !tbaa !102
  %7 = call i32 @iswupper_l(i32 noundef %5, ptr noundef %6) #13
  ret i32 %7
}

; Function Attrs: inlinehint mustprogress nounwind uwtable
define linkonce_odr hidden noundef i32 @_ZNSt3__18__locale10__iswcntrlB8ne210000EjP15__locale_struct(i32 noundef %0, ptr noundef %1) #4 comdat {
  %3 = alloca i32, align 4
  %4 = alloca ptr, align 8
  store i32 %0, ptr %3, align 4, !tbaa !41
  store ptr %1, ptr %4, align 8, !tbaa !102
  %5 = load i32, ptr %3, align 4, !tbaa !41
  %6 = load ptr, ptr %4, align 8, !tbaa !102
  %7 = call i32 @iswcntrl_l(i32 noundef %5, ptr noundef %6) #13
  ret i32 %7
}

; Function Attrs: inlinehint mustprogress nounwind uwtable
define linkonce_odr hidden noundef i32 @_ZNSt3__18__locale10__iswprintB8ne210000EjP15__locale_struct(i32 noundef %0, ptr noundef %1) #4 comdat {
  %3 = alloca i32, align 4
  %4 = alloca ptr, align 8
  store i32 %0, ptr %3, align 4, !tbaa !41
  store ptr %1, ptr %4, align 8, !tbaa !102
  %5 = load i32, ptr %3, align 4, !tbaa !41
  %6 = load ptr, ptr %4, align 8, !tbaa !102
  %7 = call i32 @iswprint_l(i32 noundef %5, ptr noundef %6) #13
  ret i32 %7
}

; Function Attrs: inlinehint mustprogress nounwind uwtable
define linkonce_odr hidden noundef i32 @_ZNSt3__18__locale10__iswspaceB8ne210000EjP15__locale_struct(i32 noundef %0, ptr noundef %1) #4 comdat {
  %3 = alloca i32, align 4
  %4 = alloca ptr, align 8
  store i32 %0, ptr %3, align 4, !tbaa !41
  store ptr %1, ptr %4, align 8, !tbaa !102
  %5 = load i32, ptr %3, align 4, !tbaa !41
  %6 = load ptr, ptr %4, align 8, !tbaa !102
  %7 = call i32 @iswspace_l(i32 noundef %5, ptr noundef %6) #13
  ret i32 %7
}

; Function Attrs: mustprogress uwtable
define dso_local noundef ptr @_ZNKSt3__112ctype_bynameIwE10do_scan_isEtPKwS3_(ptr noundef nonnull align 8 dereferenceable(24) %0, i16 noundef zeroext %1, ptr noundef %2, ptr noundef %3) unnamed_addr #2 align 2 {
  %5 = alloca ptr, align 8
  %6 = alloca i16, align 2
  %7 = alloca ptr, align 8
  %8 = alloca ptr, align 8
  %9 = alloca i32, align 4
  %10 = alloca i32, align 4
  store ptr %0, ptr %5, align 8, !tbaa !398
  store i16 %1, ptr %6, align 2, !tbaa !73
  store ptr %2, ptr %7, align 8, !tbaa !21
  store ptr %3, ptr %8, align 8, !tbaa !21
  %11 = load ptr, ptr %5, align 8
  br label %12

12:                                               ; preds = %142, %4
  %13 = load ptr, ptr %7, align 8, !tbaa !21
  %14 = load ptr, ptr %8, align 8, !tbaa !21
  %15 = icmp ne ptr %13, %14
  br i1 %15, label %16, label %145

16:                                               ; preds = %12
  call void @llvm.lifetime.start.p0(i64 4, ptr %9) #13
  %17 = load ptr, ptr %7, align 8, !tbaa !21
  %18 = load i32, ptr %17, align 4, !tbaa !23
  store i32 %18, ptr %9, align 4, !tbaa !41
  %19 = load i16, ptr %6, align 2, !tbaa !73
  %20 = zext i16 %19 to i32
  %21 = and i32 %20, 8192
  %22 = icmp eq i32 %21, 8192
  br i1 %22, label %23, label %30

23:                                               ; preds = %16
  %24 = load i32, ptr %9, align 4, !tbaa !41
  %25 = getelementptr inbounds nuw %"class.std::__1::ctype_byname.53", ptr %11, i32 0, i32 1
  %26 = load ptr, ptr %25, align 8, !tbaa !470
  %27 = call noundef i32 @_ZNSt3__18__locale10__iswspaceB8ne210000EjP15__locale_struct(i32 noundef %24, ptr noundef %26)
  %28 = icmp ne i32 %27, 0
  br i1 %28, label %29, label %30

29:                                               ; preds = %23
  store i32 2, ptr %10, align 4
  br label %139

30:                                               ; preds = %23, %16
  %31 = load i16, ptr %6, align 2, !tbaa !73
  %32 = zext i16 %31 to i32
  %33 = and i32 %32, 16384
  %34 = icmp eq i32 %33, 16384
  br i1 %34, label %35, label %42

35:                                               ; preds = %30
  %36 = load i32, ptr %9, align 4, !tbaa !41
  %37 = getelementptr inbounds nuw %"class.std::__1::ctype_byname.53", ptr %11, i32 0, i32 1
  %38 = load ptr, ptr %37, align 8, !tbaa !470
  %39 = call noundef i32 @_ZNSt3__18__locale10__iswprintB8ne210000EjP15__locale_struct(i32 noundef %36, ptr noundef %38)
  %40 = icmp ne i32 %39, 0
  br i1 %40, label %41, label %42

41:                                               ; preds = %35
  store i32 2, ptr %10, align 4
  br label %139

42:                                               ; preds = %35, %30
  %43 = load i16, ptr %6, align 2, !tbaa !73
  %44 = zext i16 %43 to i32
  %45 = and i32 %44, 2
  %46 = icmp eq i32 %45, 2
  br i1 %46, label %47, label %54

47:                                               ; preds = %42
  %48 = load i32, ptr %9, align 4, !tbaa !41
  %49 = getelementptr inbounds nuw %"class.std::__1::ctype_byname.53", ptr %11, i32 0, i32 1
  %50 = load ptr, ptr %49, align 8, !tbaa !470
  %51 = call noundef i32 @_ZNSt3__18__locale10__iswcntrlB8ne210000EjP15__locale_struct(i32 noundef %48, ptr noundef %50)
  %52 = icmp ne i32 %51, 0
  br i1 %52, label %53, label %54

53:                                               ; preds = %47
  store i32 2, ptr %10, align 4
  br label %139

54:                                               ; preds = %47, %42
  %55 = load i16, ptr %6, align 2, !tbaa !73
  %56 = zext i16 %55 to i32
  %57 = and i32 %56, 256
  %58 = icmp eq i32 %57, 256
  br i1 %58, label %59, label %66

59:                                               ; preds = %54
  %60 = load i32, ptr %9, align 4, !tbaa !41
  %61 = getelementptr inbounds nuw %"class.std::__1::ctype_byname.53", ptr %11, i32 0, i32 1
  %62 = load ptr, ptr %61, align 8, !tbaa !470
  %63 = call noundef i32 @_ZNSt3__18__locale10__iswupperB8ne210000EjP15__locale_struct(i32 noundef %60, ptr noundef %62)
  %64 = icmp ne i32 %63, 0
  br i1 %64, label %65, label %66

65:                                               ; preds = %59
  store i32 2, ptr %10, align 4
  br label %139

66:                                               ; preds = %59, %54
  %67 = load i16, ptr %6, align 2, !tbaa !73
  %68 = zext i16 %67 to i32
  %69 = and i32 %68, 512
  %70 = icmp eq i32 %69, 512
  br i1 %70, label %71, label %78

71:                                               ; preds = %66
  %72 = load i32, ptr %9, align 4, !tbaa !41
  %73 = getelementptr inbounds nuw %"class.std::__1::ctype_byname.53", ptr %11, i32 0, i32 1
  %74 = load ptr, ptr %73, align 8, !tbaa !470
  %75 = call noundef i32 @_ZNSt3__18__locale10__iswlowerB8ne210000EjP15__locale_struct(i32 noundef %72, ptr noundef %74)
  %76 = icmp ne i32 %75, 0
  br i1 %76, label %77, label %78

77:                                               ; preds = %71
  store i32 2, ptr %10, align 4
  br label %139

78:                                               ; preds = %71, %66
  %79 = load i16, ptr %6, align 2, !tbaa !73
  %80 = zext i16 %79 to i32
  %81 = and i32 %80, 1024
  %82 = icmp eq i32 %81, 1024
  br i1 %82, label %83, label %90

83:                                               ; preds = %78
  %84 = load i32, ptr %9, align 4, !tbaa !41
  %85 = getelementptr inbounds nuw %"class.std::__1::ctype_byname.53", ptr %11, i32 0, i32 1
  %86 = load ptr, ptr %85, align 8, !tbaa !470
  %87 = call noundef i32 @_ZNSt3__18__locale10__iswalphaB8ne210000EjP15__locale_struct(i32 noundef %84, ptr noundef %86)
  %88 = icmp ne i32 %87, 0
  br i1 %88, label %89, label %90

89:                                               ; preds = %83
  store i32 2, ptr %10, align 4
  br label %139

90:                                               ; preds = %83, %78
  %91 = load i16, ptr %6, align 2, !tbaa !73
  %92 = zext i16 %91 to i32
  %93 = and i32 %92, 2048
  %94 = icmp eq i32 %93, 2048
  br i1 %94, label %95, label %102

95:                                               ; preds = %90
  %96 = load i32, ptr %9, align 4, !tbaa !41
  %97 = getelementptr inbounds nuw %"class.std::__1::ctype_byname.53", ptr %11, i32 0, i32 1
  %98 = load ptr, ptr %97, align 8, !tbaa !470
  %99 = call noundef i32 @_ZNSt3__18__locale10__iswdigitB8ne210000EjP15__locale_struct(i32 noundef %96, ptr noundef %98)
  %100 = icmp ne i32 %99, 0
  br i1 %100, label %101, label %102

101:                                              ; preds = %95
  store i32 2, ptr %10, align 4
  br label %139

102:                                              ; preds = %95, %90
  %103 = load i16, ptr %6, align 2, !tbaa !73
  %104 = zext i16 %103 to i32
  %105 = and i32 %104, 4
  %106 = icmp eq i32 %105, 4
  br i1 %106, label %107, label %114

107:                                              ; preds = %102
  %108 = load i32, ptr %9, align 4, !tbaa !41
  %109 = getelementptr inbounds nuw %"class.std::__1::ctype_byname.53", ptr %11, i32 0, i32 1
  %110 = load ptr, ptr %109, align 8, !tbaa !470
  %111 = call noundef i32 @_ZNSt3__18__locale10__iswpunctB8ne210000EjP15__locale_struct(i32 noundef %108, ptr noundef %110)
  %112 = icmp ne i32 %111, 0
  br i1 %112, label %113, label %114

113:                                              ; preds = %107
  store i32 2, ptr %10, align 4
  br label %139

114:                                              ; preds = %107, %102
  %115 = load i16, ptr %6, align 2, !tbaa !73
  %116 = zext i16 %115 to i32
  %117 = and i32 %116, 4096
  %118 = icmp eq i32 %117, 4096
  br i1 %118, label %119, label %126

119:                                              ; preds = %114
  %120 = load i32, ptr %9, align 4, !tbaa !41
  %121 = getelementptr inbounds nuw %"class.std::__1::ctype_byname.53", ptr %11, i32 0, i32 1
  %122 = load ptr, ptr %121, align 8, !tbaa !470
  %123 = call noundef i32 @_ZNSt3__18__locale11__iswxdigitB8ne210000EjP15__locale_struct(i32 noundef %120, ptr noundef %122)
  %124 = icmp ne i32 %123, 0
  br i1 %124, label %125, label %126

125:                                              ; preds = %119
  store i32 2, ptr %10, align 4
  br label %139

126:                                              ; preds = %119, %114
  %127 = load i16, ptr %6, align 2, !tbaa !73
  %128 = zext i16 %127 to i32
  %129 = and i32 %128, 1
  %130 = icmp eq i32 %129, 1
  br i1 %130, label %131, label %138

131:                                              ; preds = %126
  %132 = load i32, ptr %9, align 4, !tbaa !41
  %133 = getelementptr inbounds nuw %"class.std::__1::ctype_byname.53", ptr %11, i32 0, i32 1
  %134 = load ptr, ptr %133, align 8, !tbaa !470
  %135 = call noundef i32 @_ZNSt3__18__locale10__iswblankB8ne210000EjP15__locale_struct(i32 noundef %132, ptr noundef %134)
  %136 = icmp ne i32 %135, 0
  br i1 %136, label %137, label %138

137:                                              ; preds = %131
  store i32 2, ptr %10, align 4
  br label %139

138:                                              ; preds = %131, %126
  store i32 0, ptr %10, align 4
  br label %139

139:                                              ; preds = %138, %137, %125, %113, %101, %89, %77, %65, %53, %41, %29
  call void @llvm.lifetime.end.p0(i64 4, ptr %9) #13
  %140 = load i32, ptr %10, align 4
  switch i32 %140, label %147 [
    i32 0, label %141
    i32 2, label %145
  ]

141:                                              ; preds = %139
  br label %142

142:                                              ; preds = %141
  %143 = load ptr, ptr %7, align 8, !tbaa !21
  %144 = getelementptr inbounds nuw i32, ptr %143, i32 1
  store ptr %144, ptr %7, align 8, !tbaa !21
  br label %12, !llvm.loop !474

145:                                              ; preds = %139, %12
  %146 = load ptr, ptr %7, align 8, !tbaa !21
  ret ptr %146

147:                                              ; preds = %139
  unreachable
}