; Function Attrs: mustprogress nounwind uwtable
define dso_local noundef ptr @_ZNKSt3__112ctype_bynameIwE10do_scan_isEtPKwS3_(ptr noundef nonnull readonly align 8 captures(none) dereferenceable(24) %0, i16 noundef zeroext %1, ptr noundef readonly captures(address, ret: address, provenance) %2, ptr noundef readnone captures(address) %3) unnamed_addr #0 align 2 {
  %5 = getelementptr inbounds nuw i8, ptr %0, i64 16
  %.not49 = icmp eq ptr %2, %3
  br i1 %.not49, label %.thread, label %.lr.ph

.lr.ph:                                           ; preds = %4
  %6 = zext i16 %1 to i32
  %7 = and i32 %6, 8192
  %.not27 = icmp eq i32 %7, 0
  %8 = and i32 %6, 16384
  %.not29 = icmp eq i32 %8, 0
  %9 = and i32 %6, 2
  %.not31 = icmp eq i32 %9, 0
  %10 = and i32 %6, 256
  %.not33 = icmp eq i32 %10, 0
  %11 = and i32 %6, 512
  %.not35 = icmp eq i32 %11, 0
  %12 = and i32 %6, 1024
  %.not37 = icmp eq i32 %12, 0
  %13 = and i32 %6, 2048
  %.not39 = icmp eq i32 %13, 0
  %14 = and i32 %6, 4
  %.not41 = icmp eq i32 %14, 0
  %15 = and i32 %6, 4096
  %.not43 = icmp eq i32 %15, 0
  %16 = and i32 %6, 1
  %.not45 = icmp eq i32 %16, 0
  br label %17

17:                                               ; preds = %.lr.ph, %58
  %.02650 = phi ptr [ %2, %.lr.ph ], [ %59, %58 ]
  %18 = load i32, ptr %.02650, align 4, !tbaa !10
  br i1 %.not27, label %22, label %19

19:                                               ; preds = %17
  %20 = load ptr, ptr %5, align 8, !tbaa !398
  %21 = tail call noundef i32 @iswspace_l(i32 noundef %18, ptr noundef %20) #45
  %.not28 = icmp eq i32 %21, 0
  br i1 %.not28, label %22, label %.thread

22:                                               ; preds = %19, %17
  br i1 %.not29, label %26, label %23

23:                                               ; preds = %22
  %24 = load ptr, ptr %5, align 8, !tbaa !398
  %25 = tail call noundef i32 @iswprint_l(i32 noundef %18, ptr noundef %24) #45
  %.not30 = icmp eq i32 %25, 0
  br i1 %.not30, label %26, label %.thread

26:                                               ; preds = %23, %22
  br i1 %.not31, label %30, label %27

27:                                               ; preds = %26
  %28 = load ptr, ptr %5, align 8, !tbaa !398
  %29 = tail call noundef i32 @iswcntrl_l(i32 noundef %18, ptr noundef %28) #45
  %.not32 = icmp eq i32 %29, 0
  br i1 %.not32, label %30, label %.thread

30:                                               ; preds = %27, %26
  br i1 %.not33, label %34, label %31

31:                                               ; preds = %30
  %32 = load ptr, ptr %5, align 8, !tbaa !398
  %33 = tail call noundef i32 @iswupper_l(i32 noundef %18, ptr noundef %32) #45
  %.not34 = icmp eq i32 %33, 0
  br i1 %.not34, label %34, label %.thread

34:                                               ; preds = %31, %30
  br i1 %.not35, label %38, label %35

35:                                               ; preds = %34
  %36 = load ptr, ptr %5, align 8, !tbaa !398
  %37 = tail call noundef i32 @iswlower_l(i32 noundef %18, ptr noundef %36) #45
  %.not36 = icmp eq i32 %37, 0
  br i1 %.not36, label %38, label %.thread

38:                                               ; preds = %35, %34
  br i1 %.not37, label %42, label %39

39:                                               ; preds = %38
  %40 = load ptr, ptr %5, align 8, !tbaa !398
  %41 = tail call noundef i32 @iswalpha_l(i32 noundef %18, ptr noundef %40) #45
  %.not38 = icmp eq i32 %41, 0
  br i1 %.not38, label %42, label %.thread

42:                                               ; preds = %39, %38
  br i1 %.not39, label %46, label %43

43:                                               ; preds = %42
  %44 = load ptr, ptr %5, align 8, !tbaa !398
  %45 = tail call noundef i32 @iswdigit_l(i32 noundef %18, ptr noundef %44) #45
  %.not40 = icmp eq i32 %45, 0
  br i1 %.not40, label %46, label %.thread

46:                                               ; preds = %43, %42
  br i1 %.not41, label %50, label %47

47:                                               ; preds = %46
  %48 = load ptr, ptr %5, align 8, !tbaa !398
  %49 = tail call noundef i32 @iswpunct_l(i32 noundef %18, ptr noundef %48) #45
  %.not42 = icmp eq i32 %49, 0
  br i1 %.not42, label %50, label %.thread

50:                                               ; preds = %47, %46
  br i1 %.not43, label %54, label %51

51:                                               ; preds = %50
  %52 = load ptr, ptr %5, align 8, !tbaa !398
  %53 = tail call noundef i32 @iswxdigit_l(i32 noundef %18, ptr noundef %52) #45
  %.not44 = icmp eq i32 %53, 0
  br i1 %.not44, label %54, label %.thread

54:                                               ; preds = %51, %50
  br i1 %.not45, label %58, label %55

55:                                               ; preds = %54
  %56 = load ptr, ptr %5, align 8, !tbaa !398
  %57 = tail call noundef i32 @iswblank_l(i32 noundef %18, ptr noundef %56) #45
  %.not46 = icmp eq i32 %57, 0
  br i1 %.not46, label %58, label %.thread

58:                                               ; preds = %55, %54
  %59 = getelementptr inbounds nuw i8, ptr %.02650, i64 4
  %.not = icmp eq ptr %59, %3
  br i1 %.not, label %.thread, label %17, !llvm.loop !402

.thread:                                          ; preds = %58, %19, %23, %27, %31, %35, %39, %43, %47, %51, %55, %4
  %.026.lcssa = phi ptr [ %2, %4 ], [ %.02650, %55 ], [ %.02650, %51 ], [ %.02650, %47 ], [ %.02650, %43 ], [ %.02650, %39 ], [ %.02650, %35 ], [ %.02650, %31 ], [ %.02650, %27 ], [ %.02650, %23 ], [ %.02650, %19 ], [ %59, %58 ]
  ret ptr %.026.lcssa
}